target datalayout = "e-m:e-p270:32:32-p271:32:32-p272:64:64-i64:64-i128:128-f80:128-n8:16:32:64-S128"
target triple = "x86_64-pc-linux-gnu"

%struct.Agdesc_s = type { i8, [3 x i8] }
%struct.dtlink_s_ = type { ptr, %union.anon.0 }
%union.anon.0 = type { ptr }
%struct.Agattr_s = type { %struct.Agrec_s, ptr, ptr }
%struct.Agrec_s = type { ptr, ptr }
%struct.Agdatadict_s = type { %struct.Agrec_s, %struct.anon }
%struct.anon = type { ptr, ptr, ptr }
%struct.Agraph_s = type { %struct.Agobj_s, %struct.Agdesc_s, %struct.dtlink_s_, %struct.dtlink_s_, ptr, ptr, ptr, ptr, ptr, ptr, ptr, ptr, ptr }
%struct.Agobj_s = type { %struct.Agtag_s, ptr }
%struct.Agtag_s = type { i32, i64 }

@AgDataDictDisc = global { i32, i32, i32, [4 x i8], ptr, ptr, ptr } { i32 16, i32 -1, i32 0, [4 x i8] zeroinitializer, ptr null, ptr @freesym, ptr null }, align 8
@DataDictName = internal global [13 x i8] c"_AG_datadict\00", align 1
@AgDataRecName = global ptr @.str, align 8
@ProtoGraph = internal global ptr null, align 8
@Dttree = external global ptr, align 8

; Function Attrs: nounwind uwtable
define ptr @agattrrec(ptr noundef %0) #0 {
  %2 = alloca ptr, align 8
  store ptr %0, ptr %2, align 8, !tbaa !3
  %3 = load ptr, ptr %2, align 8, !tbaa !3
  %4 = load ptr, ptr @AgDataRecName, align 8, !tbaa !31
  %5 = call ptr @aggetrec(ptr noundef %3, ptr noundef %4, i32 noundef 0)
  ret ptr %5
}

; Function Attrs: nounwind uwtable
define void @agedgeattr_init(ptr noundef %0, ptr noundef %1) #0 {
  %3 = alloca ptr, align 8
  %4 = alloca ptr, align 8
  %5 = alloca ptr, align 8
  store ptr %0, ptr %3, align 8, !tbaa !9
  store ptr %1, ptr %4, align 8, !tbaa !26
  call void @llvm.lifetime.start.p0(i64 8, ptr %5) #11
  %6 = load ptr, ptr %4, align 8, !tbaa !26
  %7 = call ptr @agattrrec(ptr noundef %6)
  store ptr %7, ptr %5, align 8, !tbaa !32
  %8 = load ptr, ptr %5, align 8, !tbaa !32
  %9 = icmp ne ptr %8, null
  br i1 %9, label %10, label %15

10:                                               ; preds = %2
  %11 = load ptr, ptr %5, align 8, !tbaa !32
  %12 = getelementptr inbounds nuw %struct.Agattr_s, ptr %11, i32 0, i32 1
  %13 = load ptr, ptr %12, align 8, !tbaa !34
  %14 = icmp ne ptr %13, null
  br i1 %14, label %19, label %15

15:                                               ; preds = %10, %2
  %16 = load ptr, ptr %3, align 8, !tbaa !9
  %17 = load ptr, ptr %4, align 8, !tbaa !26
  %18 = call ptr @agmakeattrs(ptr noundef %16, ptr noundef %17)
  br label %19

19:                                               ; preds = %15, %10
  call void @llvm.lifetime.end.p0(i64 8, ptr %5) #11
  ret void
}

; Function Attrs: nounwind uwtable
define void @agnodeattr_init(ptr noundef %0, ptr noundef %1) #0 {
  %3 = alloca ptr, align 8
  %4 = alloca ptr, align 8
  %5 = alloca ptr, align 8
  store ptr %0, ptr %3, align 8, !tbaa !9
  store ptr %1, ptr %4, align 8, !tbaa !24
  call void @llvm.lifetime.start.p0(i64 8, ptr %5) #11
  %6 = load ptr, ptr %4, align 8, !tbaa !24
  %7 = call ptr @agattrrec(ptr noundef %6)
  store ptr %7, ptr %5, align 8, !tbaa !32
  %8 = load ptr, ptr %5, align 8, !tbaa !32
  %9 = icmp ne ptr %8, null
  br i1 %9, label %10, label %15

10:                                               ; preds = %2
  %11 = load ptr, ptr %5, align 8, !tbaa !32
  %12 = getelementptr inbounds nuw %struct.Agattr_s, ptr %11, i32 0, i32 1
  %13 = load ptr, ptr %12, align 8, !tbaa !34
  %14 = icmp ne ptr %13, null
  br i1 %14, label %19, label %15

15:                                               ; preds = %10, %2
  %16 = load ptr, ptr %3, align 8, !tbaa !9
  %17 = load ptr, ptr %4, align 8, !tbaa !24
  %18 = call ptr @agmakeattrs(ptr noundef %16, ptr noundef %17)
  br label %19

19:                                               ; preds = %15, %10
  call void @llvm.lifetime.end.p0(i64 8, ptr %5) #11
  ret void
}

; Function Attrs: nounwind uwtable
define internal void @init_all_attrs(ptr noundef %0) #0 {
  %2 = alloca ptr, align 8
  %3 = alloca ptr, align 8
  %4 = alloca ptr, align 8
  %5 = alloca ptr, align 8
  store ptr %0, ptr %2, align 8, !tbaa !9
  call void @llvm.lifetime.start.p0(i64 8, ptr %3) #11
  call void @llvm.lifetime.start.p0(i64 8, ptr %4) #11
  call void @llvm.lifetime.start.p0(i64 8, ptr %5) #11
  %6 = load ptr, ptr %2, align 8, !tbaa !9
  %7 = call ptr @agroot(ptr noundef %6)
  store ptr %7, ptr %3, align 8, !tbaa !9
  %8 = load ptr, ptr %3, align 8, !tbaa !9
  %9 = load ptr, ptr %3, align 8, !tbaa !9
  %10 = call i32 @agapply(ptr noundef %8, ptr noundef %9, ptr noundef @agraphattr_init_wrapper, ptr noundef null, i32 noundef 1)
  %11 = load ptr, ptr %3, align 8, !tbaa !9
  %12 = call ptr @agfstnode(ptr noundef %11)
  store ptr %12, ptr %4, align 8, !tbaa !24
  br label %13

13:                                               ; preds = %33, %1
  %14 = load ptr, ptr %4, align 8, !tbaa !24
  %15 = icmp ne ptr %14, null
  br i1 %15, label %16, label %37

16:                                               ; preds = %13
  %17 = load ptr, ptr %2, align 8, !tbaa !9
  %18 = load ptr, ptr %4, align 8, !tbaa !24
  call void @agnodeattr_init(ptr noundef %17, ptr noundef %18)
  %19 = load ptr, ptr %3, align 8, !tbaa !9
  %20 = load ptr, ptr %4, align 8, !tbaa !24
  %21 = call ptr @agfstout(ptr noundef %19, ptr noundef %20)
  store ptr %21, ptr %5, align 8, !tbaa !26
  br label %22

22:                                               ; preds = %28, %16
  %23 = load ptr, ptr %5, align 8, !tbaa !26
  %24 = icmp ne ptr %23, null
  br i1 %24, label %25, label %32

25:                                               ; preds = %22
  %26 = load ptr, ptr %2, align 8, !tbaa !9
  %27 = load ptr, ptr %5, align 8, !tbaa !26
  call void @agedgeattr_init(ptr noundef %26, ptr noundef %27)
  br label %28

28:                                               ; preds = %25
  %29 = load ptr, ptr %3, align 8, !tbaa !9
  %30 = load ptr, ptr %5, align 8, !tbaa !26
  %31 = call ptr @agnxtout(ptr noundef %29, ptr noundef %30)
  store ptr %31, ptr %5, align 8, !tbaa !26
  br label %22, !llvm.loop !28

32:                                               ; preds = %22
  br label %33

33:                                               ; preds = %32
  %34 = load ptr, ptr %3, align 8, !tbaa !9
  %35 = load ptr, ptr %4, align 8, !tbaa !24
  %36 = call ptr @agnxtnode(ptr noundef %34, ptr noundef %35)
  store ptr %36, ptr %4, align 8, !tbaa !24
  br label %13, !llvm.loop !30

37:                                               ; preds = %13
  call void @llvm.lifetime.end.p0(i64 8, ptr %5) #11
  call void @llvm.lifetime.end.p0(i64 8, ptr %4) #11
  call void @llvm.lifetime.end.p0(i64 8, ptr %3) #11
  ret void
}

; Function Attrs: nounwind uwtable
define ptr @agdatadict(ptr noundef %0, i1 noundef zeroext %1) #0 {
  %3 = alloca ptr, align 8
  %4 = alloca ptr, align 8
  %5 = alloca i8, align 1
  %6 = alloca ptr, align 8
  %7 = alloca i32, align 4
  store ptr %0, ptr %4, align 8, !tbaa !9
  %8 = zext i1 %1 to i8
  store i8 %8, ptr %5, align 1, !tbaa !18
  call void @llvm.lifetime.start.p0(i64 8, ptr %6) #11
  %9 = load ptr, ptr %4, align 8, !tbaa !9
  %10 = call ptr @aggetrec(ptr noundef %9, ptr noundef @DataDictName, i32 noundef 0)
  store ptr %10, ptr %6, align 8, !tbaa !20
  %11 = load ptr, ptr %6, align 8, !tbaa !20
  %12 = icmp ne ptr %11, null
  br i1 %12, label %16, label %13

13:                                               ; preds = %2
  %14 = load i8, ptr %5, align 1, !tbaa !18, !range !22, !noundef !23
  %15 = trunc i8 %14 to i1
  br i1 %15, label %18, label %16

16:                                               ; preds = %13, %2
  %17 = load ptr, ptr %6, align 8, !tbaa !20
  store ptr %17, ptr %3, align 8
  store i32 1, ptr %7, align 4
  br label %23

18:                                               ; preds = %13
  %19 = load ptr, ptr %4, align 8, !tbaa !9
  call void @init_all_attrs(ptr noundef %19)
  %20 = load ptr, ptr %4, align 8, !tbaa !9
  %21 = call ptr @aggetrec(ptr noundef %20, ptr noundef @DataDictName, i32 noundef 0)
  store ptr %21, ptr %6, align 8, !tbaa !20
  %22 = load ptr, ptr %6, align 8, !tbaa !20
  store ptr %22, ptr %3, align 8
  store i32 1, ptr %7, align 4
  br label %23

23:                                               ; preds = %18, %16
  call void @llvm.lifetime.end.p0(i64 8, ptr %6) #11
  %24 = load ptr, ptr %3, align 8
  ret ptr %24
}

; Function Attrs: nounwind uwtable
define internal ptr @agmakedatadict(ptr noundef %0) #0 {
  %2 = alloca ptr, align 8
  %3 = alloca ptr, align 8
  %4 = alloca ptr, align 8
  %5 = alloca ptr, align 8
  store ptr %0, ptr %2, align 8, !tbaa !9
  call void @llvm.lifetime.start.p0(i64 8, ptr %3) #11
  call void @llvm.lifetime.start.p0(i64 8, ptr %4) #11
  call void @llvm.lifetime.start.p0(i64 8, ptr %5) #11
  %6 = load ptr, ptr %2, align 8, !tbaa !9
  %7 = call ptr @agbindrec(ptr noundef %6, ptr noundef @DataDictName, i32 noundef 40, i32 noundef 0)
  store ptr %7, ptr %5, align 8, !tbaa !20
  %8 = load ptr, ptr @Dttree, align 8, !tbaa !3
  %9 = call ptr @agdtopen(ptr noundef @AgDataDictDisc, ptr noundef %8)
  %10 = load ptr, ptr %5, align 8, !tbaa !20
  %11 = getelementptr inbounds nuw %struct.Agdatadict_s, ptr %10, i32 0, i32 1
  %12 = getelementptr inbounds nuw %struct.anon, ptr %11, i32 0, i32 0
  store ptr %9, ptr %12, align 8, !tbaa !49
  %13 = load ptr, ptr @Dttree, align 8, !tbaa !3
  %14 = call ptr @agdtopen(ptr noundef @AgDataDictDisc, ptr noundef %13)
  %15 = load ptr, ptr %5, align 8, !tbaa !20
  %16 = getelementptr inbounds nuw %struct.Agdatadict_s, ptr %15, i32 0, i32 1
  %17 = getelementptr inbounds nuw %struct.anon, ptr %16, i32 0, i32 1
  store ptr %14, ptr %17, align 8, !tbaa !50
  %18 = load ptr, ptr @Dttree, align 8, !tbaa !3
  %19 = call ptr @agdtopen(ptr noundef @AgDataDictDisc, ptr noundef %18)
  %20 = load ptr, ptr %5, align 8, !tbaa !20
  %21 = getelementptr inbounds nuw %struct.Agdatadict_s, ptr %20, i32 0, i32 1
  %22 = getelementptr inbounds nuw %struct.anon, ptr %21, i32 0, i32 2
  store ptr %19, ptr %22, align 8, !tbaa !46
  %23 = load ptr, ptr %2, align 8, !tbaa !9
  %24 = call ptr @agparent(ptr noundef %23)
  store ptr %24, ptr %3, align 8, !tbaa !9
  %25 = icmp ne ptr %24, null
  br i1 %25, label %26, label %56

26:                                               ; preds = %1
  %27 = load ptr, ptr %3, align 8, !tbaa !9
  %28 = call ptr @agdatadict(ptr noundef %27, i1 noundef zeroext false)
  store ptr %28, ptr %4, align 8, !tbaa !20
  %29 = load ptr, ptr %5, align 8, !tbaa !20
  %30 = getelementptr inbounds nuw %struct.Agdatadict_s, ptr %29, i32 0, i32 1
  %31 = getelementptr inbounds nuw %struct.anon, ptr %30, i32 0, i32 0
  %32 = load ptr, ptr %31, align 8, !tbaa !49
  %33 = load ptr, ptr %4, align 8, !tbaa !20
  %34 = getelementptr inbounds nuw %struct.Agdatadict_s, ptr %33, i32 0, i32 1
  %35 = getelementptr inbounds nuw %struct.anon, ptr %34, i32 0, i32 0
  %36 = load ptr, ptr %35, align 8, !tbaa !49
  %37 = call ptr @dtview(ptr noundef %32, ptr noundef %36)
  %38 = load ptr, ptr %5, align 8, !tbaa !20
  %39 = getelementptr inbounds nuw %struct.Agdatadict_s, ptr %38, i32 0, i32 1
  %40 = getelementptr inbounds nuw %struct.anon, ptr %39, i32 0, i32 1
  %41 = load ptr, ptr %40, align 8, !tbaa !50
  %42 = load ptr, ptr %4, align 8, !tbaa !20
  %43 = getelementptr inbounds nuw %struct.Agdatadict_s, ptr %42, i32 0, i32 1
  %44 = getelementptr inbounds nuw %struct.anon, ptr %43, i32 0, i32 1
  %45 = load ptr, ptr %44, align 8, !tbaa !50
  %46 = call ptr @dtview(ptr noundef %41, ptr noundef %45)
  %47 = load ptr, ptr %5, align 8, !tbaa !20
  %48 = getelementptr inbounds nuw %struct.Agdatadict_s, ptr %47, i32 0, i32 1
  %49 = getelementptr inbounds nuw %struct.anon, ptr %48, i32 0, i32 2
  %50 = load ptr, ptr %49, align 8, !tbaa !46
  %51 = load ptr, ptr %4, align 8, !tbaa !20
  %52 = getelementptr inbounds nuw %struct.Agdatadict_s, ptr %51, i32 0, i32 1
  %53 = getelementptr inbounds nuw %struct.anon, ptr %52, i32 0, i32 2
  %54 = load ptr, ptr %53, align 8, !tbaa !46
  %55 = call ptr @dtview(ptr noundef %50, ptr noundef %54)
  br label %94

56:                                               ; preds = %1
  %57 = load ptr, ptr @ProtoGraph, align 8, !tbaa !9
  %58 = icmp ne ptr %57, null
  br i1 %58, label %59, label %93

59:                                               ; preds = %56
  %60 = load ptr, ptr %2, align 8, !tbaa !9
  %61 = load ptr, ptr @ProtoGraph, align 8, !tbaa !9
  %62 = icmp ne ptr %60, %61
  br i1 %62, label %63, label %93

63:                                               ; preds = %59
  %64 = load ptr, ptr @ProtoGraph, align 8, !tbaa !9
  %65 = call ptr @agdatadict(ptr noundef %64, i1 noundef zeroext false)
  store ptr %65, ptr %4, align 8, !tbaa !20
  %66 = load ptr, ptr %4, align 8, !tbaa !20
  %67 = getelementptr inbounds nuw %struct.Agdatadict_s, ptr %66, i32 0, i32 1
  %68 = getelementptr inbounds nuw %struct.anon, ptr %67, i32 0, i32 0
  %69 = load ptr, ptr %68, align 8, !tbaa !49
  %70 = load ptr, ptr %5, align 8, !tbaa !20
  %71 = getelementptr inbounds nuw %struct.Agdatadict_s, ptr %70, i32 0, i32 1
  %72 = getelementptr inbounds nuw %struct.anon, ptr %71, i32 0, i32 0
  %73 = load ptr, ptr %72, align 8, !tbaa !49
  %74 = load ptr, ptr %2, align 8, !tbaa !9
  call void @agcopydict(ptr noundef %69, ptr noundef %73, ptr noundef %74, i32 noundef 1)
  %75 = load ptr, ptr %4, align 8, !tbaa !20
  %76 = getelementptr inbounds nuw %struct.Agdatadict_s, ptr %75, i32 0, i32 1
  %77 = getelementptr inbounds nuw %struct.anon, ptr %76, i32 0, i32 1
  %78 = load ptr, ptr %77, align 8, !tbaa !50
  %79 = load ptr, ptr %5, align 8, !tbaa !20
  %80 = getelementptr inbounds nuw %struct.Agdatadict_s, ptr %79, i32 0, i32 1
  %81 = getelementptr inbounds nuw %struct.anon, ptr %80, i32 0, i32 1
  %82 = load ptr, ptr %81, align 8, !tbaa !50
  %83 = load ptr, ptr %2, align 8, !tbaa !9
  call void @agcopydict(ptr noundef %78, ptr noundef %82, ptr noundef %83, i32 noundef 2)
  %84 = load ptr, ptr %4, align 8, !tbaa !20
  %85 = getelementptr inbounds nuw %struct.Agdatadict_s, ptr %84, i32 0, i32 1
  %86 = getelementptr inbounds nuw %struct.anon, ptr %85, i32 0, i32 2
  %87 = load ptr, ptr %86, align 8, !tbaa !46
  %88 = load ptr, ptr %5, align 8, !tbaa !20
  %89 = getelementptr inbounds nuw %struct.Agdatadict_s, ptr %88, i32 0, i32 1
  %90 = getelementptr inbounds nuw %struct.anon, ptr %89, i32 0, i32 2
  %91 = load ptr, ptr %90, align 8, !tbaa !46
  %92 = load ptr, ptr %2, align 8, !tbaa !9
  call void @agcopydict(ptr noundef %87, ptr noundef %91, ptr noundef %92, i32 noundef 0)
  br label %93

93:                                               ; preds = %63, %59, %56
  br label %94

94:                                               ; preds = %93, %26
  %95 = load ptr, ptr %5, align 8, !tbaa !20
  call void @llvm.lifetime.end.p0(i64 8, ptr %5) #11
  call void @llvm.lifetime.end.p0(i64 8, ptr %4) #11
  call void @llvm.lifetime.end.p0(i64 8, ptr %3) #11
  ret ptr %95
}

; Function Attrs: nounwind uwtable
define void @agraphattr_init(ptr noundef %0) #0 {
  %2 = alloca ptr, align 8
  %3 = alloca ptr, align 8
  store ptr %0, ptr %2, align 8, !tbaa !9
  call void @llvm.lifetime.start.p0(i64 8, ptr %3) #11
  %4 = load ptr, ptr %2, align 8, !tbaa !9
  %5 = getelementptr inbounds nuw %struct.Agraph_s, ptr %4, i32 0, i32 1
  %6 = load i8, ptr %5, align 8
  %7 = and i8 %6, -33
  %8 = or i8 %7, 32
  store i8 %8, ptr %5, align 8
  %9 = load ptr, ptr %2, align 8, !tbaa !9
  %10 = call ptr @agmakedatadict(ptr noundef %9)
  %11 = load ptr, ptr %2, align 8, !tbaa !9
  %12 = call ptr @agparent(ptr noundef %11)
  store ptr %12, ptr %3, align 8, !tbaa !9
  %13 = icmp ne ptr %12, null
  br i1 %13, label %16, label %14

14:                                               ; preds = %1
  %15 = load ptr, ptr %2, align 8, !tbaa !9
  store ptr %15, ptr %3, align 8, !tbaa !9
  br label %16

16:                                               ; preds = %14, %1
  %17 = load ptr, ptr %3, align 8, !tbaa !9
  %18 = load ptr, ptr %2, align 8, !tbaa !9
  %19 = call ptr @agmakeattrs(ptr noundef %17, ptr noundef %18)
  call void @llvm.lifetime.end.p0(i64 8, ptr %3) #11
  ret void
}