; Function Attrs: nounwind uwtable
define void @agraphattr_init(ptr noundef %0) local_unnamed_addr #0 {
  %2 = getelementptr inbounds nuw i8, ptr %0, i64 24
  %3 = load i8, ptr %2, align 8
  %4 = or i8 %3, 32
  store i8 %4, ptr %2, align 8
  %5 = tail call ptr @agbindrec(ptr noundef %0, ptr noundef nonnull @DataDictName, i32 noundef 40, i32 noundef 0) #12
  %6 = load ptr, ptr @Dttree, align 8, !tbaa !44
  %7 = tail call ptr @agdtopen(ptr noundef nonnull @AgDataDictDisc, ptr noundef %6) #12
  %8 = getelementptr inbounds nuw i8, ptr %5, i64 16
  store ptr %7, ptr %8, align 8, !tbaa !32
  %9 = load ptr, ptr @Dttree, align 8, !tbaa !44
  %10 = tail call ptr @agdtopen(ptr noundef nonnull @AgDataDictDisc, ptr noundef %9) #12
  %11 = getelementptr inbounds nuw i8, ptr %5, i64 24
  store ptr %10, ptr %11, align 8, !tbaa !33
  %12 = load ptr, ptr @Dttree, align 8, !tbaa !44
  %13 = tail call ptr @agdtopen(ptr noundef nonnull @AgDataDictDisc, ptr noundef %12) #12
  %14 = getelementptr inbounds nuw i8, ptr %5, i64 32
  store ptr %13, ptr %14, align 8, !tbaa !29
  %15 = tail call ptr @agparent(ptr noundef %0) #12
  %.not.i = icmp eq ptr %15, null
  br i1 %.not.i, label %30, label %16

16:                                               ; preds = %1
  %17 = tail call ptr @aggetrec(ptr noundef nonnull %15, ptr noundef nonnull @DataDictName, i32 noundef 0) #12
  %18 = load ptr, ptr %8, align 8, !tbaa !32
  %19 = getelementptr inbounds nuw i8, ptr %17, i64 16
  %20 = load ptr, ptr %19, align 8, !tbaa !32
  %21 = tail call ptr @dtview(ptr noundef %18, ptr noundef %20) #12
  %22 = load ptr, ptr %11, align 8, !tbaa !33
  %23 = getelementptr inbounds nuw i8, ptr %17, i64 24
  %24 = load ptr, ptr %23, align 8, !tbaa !33
  %25 = tail call ptr @dtview(ptr noundef %22, ptr noundef %24) #12
  %26 = load ptr, ptr %14, align 8, !tbaa !29
  %27 = getelementptr inbounds nuw i8, ptr %17, i64 32
  %28 = load ptr, ptr %27, align 8, !tbaa !29
  %29 = tail call ptr @dtview(ptr noundef %26, ptr noundef %28) #12
  br label %agmakedatadict.exit

30:                                               ; preds = %1
  %31 = load ptr, ptr @ProtoGraph, align 8, !tbaa !3
  %.not25.i = icmp eq ptr %31, null
  %.not26.i = icmp eq ptr %0, %31
  %or.cond.i = or i1 %.not25.i, %.not26.i
  br i1 %or.cond.i, label %agmakedatadict.exit, label %32

32:                                               ; preds = %30
  %33 = tail call ptr @aggetrec(ptr noundef nonnull %31, ptr noundef nonnull @DataDictName, i32 noundef 0) #12
  %34 = getelementptr inbounds nuw i8, ptr %33, i64 16
  %35 = load ptr, ptr %34, align 8, !tbaa !32
  %36 = load ptr, ptr %8, align 8, !tbaa !32
  tail call fastcc void @agcopydict(ptr noundef %35, ptr noundef %36, ptr noundef nonnull %0, i32 noundef 1)
  %37 = getelementptr inbounds nuw i8, ptr %33, i64 24
  %38 = load ptr, ptr %37, align 8, !tbaa !33
  %39 = load ptr, ptr %11, align 8, !tbaa !33
  tail call fastcc void @agcopydict(ptr noundef %38, ptr noundef %39, ptr noundef nonnull %0, i32 noundef 2)
  %40 = getelementptr inbounds nuw i8, ptr %33, i64 32
  %41 = load ptr, ptr %40, align 8, !tbaa !29
  %42 = load ptr, ptr %14, align 8, !tbaa !29
  tail call fastcc void @agcopydict(ptr noundef %41, ptr noundef %42, ptr noundef nonnull %0, i32 noundef 0)
  br label %agmakedatadict.exit

agmakedatadict.exit:                              ; preds = %16, %30, %32
  %43 = tail call ptr @agparent(ptr noundef nonnull %0) #12
  %.not = icmp eq ptr %43, null
  %spec.select = select i1 %.not, ptr %0, ptr %43
  tail call fastcc void @agmakeattrs(ptr noundef nonnull %spec.select, ptr noundef nonnull %0)
  ret void
}